(lp0
S'poi'
p1
aS'deferral_payments'
p2
aS'expenses'
p3
aS'from_messages'
p4
aS'bonus'
p5
aS'total_emails'
p6
aS'from_this_person_to_poi'
p7
aS'restricted_stock'
p8
aS'salary'
p9
aS'total_payments'
p10
a.